target datalayout = "e-m:e-p270:32:32-p271:32:32-p272:64:64-i64:64-i128:128-f80:128-n8:16:32:64-S128"
target triple = "x86_64-pc-linux-gnu"

%"class.std::unique_ptr" = type { %"struct.std::__uniq_ptr_data" }
%"struct.std::__uniq_ptr_data" = type { %"class.std::__uniq_ptr_impl" }
%"class.std::__uniq_ptr_impl" = type { %"class.std::tuple" }
%"class.std::tuple" = type { %"struct.std::_Tuple_impl" }
%"struct.std::_Tuple_impl" = type { %"struct.std::_Head_base.1" }
%"struct.std::_Head_base.1" = type { ptr }
%"class.std::basic_string_view" = type { i64, ptr }

; Function Attrs: mustprogress uwtable
define dso_local noundef ptr @_ZN4absl14flags_internal21PrivateHandleAccessor6TypeIdERKNS_15CommandLineFlagE(ptr noundef nonnull align 8 dereferenceable(8) %0) #0 align 2 {
  %2 = alloca ptr, align 8
  store ptr %0, ptr %2, align 8, !tbaa !4
  %3 = load ptr, ptr %2, align 8, !tbaa !4
  %4 = load ptr, ptr %3, align 8, !tbaa !9
  %5 = getelementptr inbounds ptr, ptr %4, i64 7
  %6 = load ptr, ptr %5, align 8
  %7 = call noundef ptr %6(ptr noundef nonnull align 8 dereferenceable(8) %3)
  ret ptr %7
}

; Function Attrs: mustprogress uwtable
define dso_local void @_ZN4absl14flags_internal21PrivateHandleAccessor9SaveStateERNS_15CommandLineFlagE(ptr dead_on_unwind noalias writable sret(%"class.std::unique_ptr") align 8 %0, ptr noundef nonnull align 8 dereferenceable(8) %1) #0 align 2 {
  %3 = alloca ptr, align 8
  %4 = alloca ptr, align 8
  store ptr %0, ptr %3, align 8
  store ptr %1, ptr %4, align 8, !tbaa !4
  %5 = load ptr, ptr %4, align 8, !tbaa !4
  %6 = load ptr, ptr %5, align 8, !tbaa !9
  %7 = getelementptr inbounds ptr, ptr %6, i64 8
  %8 = load ptr, ptr %7, align 8
  call void %8(ptr dead_on_unwind writable sret(%"class.std::unique_ptr") align 8 %0, ptr noundef nonnull align 8 dereferenceable(8) %5)
  ret void
}

; Function Attrs: mustprogress uwtable
define dso_local noundef zeroext i1 @_ZN4absl14flags_internal21PrivateHandleAccessor24IsSpecifiedOnCommandLineERKNS_15CommandLineFlagE(ptr noundef nonnull align 8 dereferenceable(8) %0) #0 align 2 {
  %2 = alloca ptr, align 8
  store ptr %0, ptr %2, align 8, !tbaa !4
  %3 = load ptr, ptr %2, align 8, !tbaa !4
  %4 = load ptr, ptr %3, align 8, !tbaa !9
  %5 = getelementptr inbounds ptr, ptr %4, i64 10
  %6 = load ptr, ptr %5, align 8
  %7 = call noundef zeroext i1 %6(ptr noundef nonnull align 8 dereferenceable(8) %3)
  ret i1 %7
}

; Function Attrs: mustprogress uwtable
define dso_local noundef zeroext i1 @_ZN4absl14flags_internal21PrivateHandleAccessor18ValidateInputValueERKNS_15CommandLineFlagESt17basic_string_viewIcSt11char_traitsIcEE(ptr noundef nonnull align 8 dereferenceable(8) %0, i64 %1, ptr %2) #0 align 2 {
  %4 = alloca %"class.std::basic_string_view", align 8
  %5 = alloca ptr, align 8
  %6 = alloca %"class.std::basic_string_view", align 8
  %7 = getelementptr inbounds nuw { i64, ptr }, ptr %4, i32 0, i32 0
  store i64 %1, ptr %7, align 8
  %8 = getelementptr inbounds nuw { i64, ptr }, ptr %4, i32 0, i32 1
  store ptr %2, ptr %8, align 8
  store ptr %0, ptr %5, align 8, !tbaa !4
  %9 = load ptr, ptr %5, align 8, !tbaa !4
  call void @llvm.memcpy.p0.p0.i64(ptr align 8 %6, ptr align 8 %4, i64 16, i1 false), !tbaa.struct !11
  %10 = getelementptr inbounds nuw { i64, ptr }, ptr %6, i32 0, i32 0
  %11 = load i64, ptr %10, align 8
  %12 = getelementptr inbounds nuw { i64, ptr }, ptr %6, i32 0, i32 1
  %13 = load ptr, ptr %12, align 8
  %14 = load ptr, ptr %9, align 8, !tbaa !9
  %15 = getelementptr inbounds ptr, ptr %14, i64 11
  %16 = load ptr, ptr %15, align 8
  %17 = call noundef zeroext i1 %16(ptr noundef nonnull align 8 dereferenceable(8) %9, i64 %11, ptr %13)
  ret i1 %17
}

; Function Attrs: nocallback nofree nounwind willreturn memory(argmem: readwrite)
declare void @llvm.memcpy.p0.p0.i64(ptr noalias writeonly captures(none), ptr noalias readonly captures(none), i64, i1 immarg) #1

; Function Attrs: mustprogress uwtable
define dso_local void @_ZN4absl14flags_internal21PrivateHandleAccessor33CheckDefaultValueParsingRoundtripERKNS_15CommandLineFlagE(ptr noundef nonnull align 8 dereferenceable(8) %0) #0 align 2 {
  %2 = alloca ptr, align 8
  store ptr %0, ptr %2, align 8, !tbaa !4
  %3 = load ptr, ptr %2, align 8, !tbaa !4
  %4 = load ptr, ptr %3, align 8, !tbaa !9
  %5 = getelementptr inbounds ptr, ptr %4, i64 12
  %6 = load ptr, ptr %5, align 8
  call void %6(ptr noundef nonnull align 8 dereferenceable(8) %3)
  ret void
}

; Function Attrs: mustprogress uwtable
define dso_local noundef zeroext i1 @_ZN4absl14flags_internal21PrivateHandleAccessor9ParseFromERNS_15CommandLineFlagESt17basic_string_viewIcSt11char_traitsIcEENS0_15FlagSettingModeENS0_11ValueSourceERNSt7__cxx1112basic_stringIcS6_SaIcEEE(ptr noundef nonnull align 8 dereferenceable(8) %0, i64 %1, ptr %2, i32 noundef %3, i32 noundef %4, ptr noundef nonnull align 8 dereferenceable(32) %5) #0 align 2 {
  %7 = alloca %"class.std::basic_string_view", align 8
  %8 = alloca ptr, align 8
  %9 = alloca i32, align 4
  %10 = alloca i32, align 4
  %11 = alloca ptr, align 8
  %12 = alloca %"class.std::basic_string_view", align 8
  %13 = getelementptr inbounds nuw { i64, ptr }, ptr %7, i32 0, i32 0
  store i64 %1, ptr %13, align 8
  %14 = getelementptr inbounds nuw { i64, ptr }, ptr %7, i32 0, i32 1
  store ptr %2, ptr %14, align 8
  store ptr %0, ptr %8, align 8, !tbaa !4
  store i32 %3, ptr %9, align 4, !tbaa !16
  store i32 %4, ptr %10, align 4, !tbaa !18
  store ptr %5, ptr %11, align 8, !tbaa !20
  %15 = load ptr, ptr %8, align 8, !tbaa !4
  call void @llvm.memcpy.p0.p0.i64(ptr align 8 %12, ptr align 8 %7, i64 16, i1 false), !tbaa.struct !11
  %16 = load i32, ptr %9, align 4, !tbaa !16
  %17 = load i32, ptr %10, align 4, !tbaa !18
  %18 = load ptr, ptr %11, align 8, !tbaa !20
  %19 = getelementptr inbounds nuw { i64, ptr }, ptr %12, i32 0, i32 0
  %20 = load i64, ptr %19, align 8
  %21 = getelementptr inbounds nuw { i64, ptr }, ptr %12, i32 0, i32 1
  %22 = load ptr, ptr %21, align 8
  %23 = load ptr, ptr %15, align 8, !tbaa !9
  %24 = getelementptr inbounds ptr, ptr %23, i64 6
  %25 = load ptr, ptr %24, align 8
  %26 = call noundef zeroext i1 %25(ptr noundef nonnull align 8 dereferenceable(8) %15, i64 %20, ptr %22, i32 noundef %16, i32 noundef %17, ptr noundef nonnull align 8 dereferenceable(32) %18)
  ret i1 %26
}

; Function Attrs: mustprogress uwtable
define dso_local { i64, ptr } @_ZN4absl14flags_internal21PrivateHandleAccessor8TypeNameERKNS_15CommandLineFlagE(ptr noundef nonnull align 8 dereferenceable(8) %0) #0 align 2 {
  %2 = alloca %"class.std::basic_string_view", align 8
  %3 = alloca ptr, align 8
  store ptr %0, ptr %3, align 8, !tbaa !4
  %4 = load ptr, ptr %3, align 8, !tbaa !4
  %5 = load ptr, ptr %4, align 8, !tbaa !9
  %6 = getelementptr inbounds ptr, ptr %5, i64 13
  %7 = load ptr, ptr %6, align 8
  %8 = call { i64, ptr } %7(ptr noundef nonnull align 8 dereferenceable(8) %4)
  %9 = getelementptr inbounds nuw { i64, ptr }, ptr %2, i32 0, i32 0
  %10 = extractvalue { i64, ptr } %8, 0
  store i64 %10, ptr %9, align 8
  %11 = getelementptr inbounds nuw { i64, ptr }, ptr %2, i32 0, i32 1
  %12 = extractvalue { i64, ptr } %8, 1
  store ptr %12, ptr %11, align 8
  %13 = load { i64, ptr }, ptr %2, align 8
  ret { i64, ptr } %13
}


!llvm.module.flags = !{!0, !1, !2, !3}

!0 = !{i32 1, !"wchar_size", i32 4}
!1 = !{i32 8, !"PIC Level", i32 2}
!2 = !{i32 7, !"PIE Level", i32 2}
!3 = !{i32 7, !"uwtable", i32 2}
!4 = !{!5, !5, i64 0}
!5 = !{!"p1 _ZTSN4absl15CommandLineFlagE", !6, i64 0}
!6 = !{!"any pointer", !7, i64 0}
!7 = !{!"omnipotent char", !8, i64 0}
!8 = !{!"Simple C++ TBAA"}
!9 = !{!10, !10, i64 0}
!10 = !{!"vtable pointer", !8, i64 0}
!11 = !{i64 0, i64 8, !12, i64 8, i64 8, !14}
!12 = !{!13, !13, i64 0}
!13 = !{!"long", !7, i64 0}
!14 = !{!15, !15, i64 0}
!15 = !{!"p1 omnipotent char", !6, i64 0}
!16 = !{!17, !17, i64 0}
!17 = !{!"_ZTSN4absl14flags_internal15FlagSettingModeE", !7, i64 0}
!18 = !{!19, !19, i64 0}
!19 = !{!"_ZTSN4absl14flags_internal11ValueSourceE", !7, i64 0}
!20 = !{!21, !21, i64 0}
!21 = !{!"p1 _ZTSNSt7__cxx1112basic_stringIcSt11char_traitsIcESaIcEEE", !6, i64 0}
