; ModuleID = 'bench/abseil-cpp/original/private_handle_accessor.ll'
source_filename = "bench/abseil-cpp/original/private_handle_accessor.ll"
target datalayout = "e-m:e-p270:32:32-p271:32:32-p272:64:64-i64:64-i128:128-f80:128-n8:16:32:64-S128"
target triple = "x86_64-pc-linux-gnu"

%"class.std::unique_ptr" = type { %"struct.std::__uniq_ptr_data" }
%"struct.std::__uniq_ptr_data" = type { %"class.std::__uniq_ptr_impl" }
%"class.std::__uniq_ptr_impl" = type { %"class.std::tuple" }
%"class.std::tuple" = type { %"struct.std::_Tuple_impl" }
%"struct.std::_Tuple_impl" = type { %"struct.std::_Head_base.1" }
%"struct.std::_Head_base.1" = type { ptr }

; Function Attrs: mustprogress uwtable
define dso_local noundef ptr @_ZN4absl14flags_internal21PrivateHandleAccessor6TypeIdERKNS_15CommandLineFlagE(ptr noundef nonnull align 8 dereferenceable(8) %0) local_unnamed_addr #0 align 2 {
  %2 = load ptr, ptr %0, align 8, !tbaa !4
  %3 = getelementptr inbounds nuw i8, ptr %2, i64 56
  %4 = load ptr, ptr %3, align 8
  %5 = tail call noundef ptr %4(ptr noundef nonnull align 8 dereferenceable(8) %0)
  ret ptr %5
}

; Function Attrs: mustprogress uwtable
define dso_local void @_ZN4absl14flags_internal21PrivateHandleAccessor9SaveStateERNS_15CommandLineFlagE(ptr dead_on_unwind noalias writable sret(%"class.std::unique_ptr") align 8 %0, ptr noundef nonnull align 8 dereferenceable(8) %1) local_unnamed_addr #0 align 2 {
  %3 = load ptr, ptr %1, align 8, !tbaa !4
  %4 = getelementptr inbounds nuw i8, ptr %3, i64 64
  %5 = load ptr, ptr %4, align 8
  tail call void %5(ptr dead_on_unwind writable sret(%"class.std::unique_ptr") align 8 %0, ptr noundef nonnull align 8 dereferenceable(8) %1)
  ret void
}

; Function Attrs: mustprogress uwtable
define dso_local noundef zeroext i1 @_ZN4absl14flags_internal21PrivateHandleAccessor24IsSpecifiedOnCommandLineERKNS_15CommandLineFlagE(ptr noundef nonnull align 8 dereferenceable(8) %0) local_unnamed_addr #0 align 2 {
  %2 = load ptr, ptr %0, align 8, !tbaa !4
  %3 = getelementptr inbounds nuw i8, ptr %2, i64 80
  %4 = load ptr, ptr %3, align 8
  %5 = tail call noundef zeroext i1 %4(ptr noundef nonnull align 8 dereferenceable(8) %0)
  ret i1 %5
}

; Function Attrs: mustprogress uwtable
define dso_local noundef zeroext i1 @_ZN4absl14flags_internal21PrivateHandleAccessor18ValidateInputValueERKNS_15CommandLineFlagESt17basic_string_viewIcSt11char_traitsIcEE(ptr noundef nonnull align 8 dereferenceable(8) %0, i64 %1, ptr %2) local_unnamed_addr #0 align 2 {
  %4 = load ptr, ptr %0, align 8, !tbaa !4
  %5 = getelementptr inbounds nuw i8, ptr %4, i64 88
  %6 = load ptr, ptr %5, align 8
  %7 = tail call noundef zeroext i1 %6(ptr noundef nonnull align 8 dereferenceable(8) %0, i64 %1, ptr %2)
  ret i1 %7
}

; Function Attrs: mustprogress uwtable
define dso_local void @_ZN4absl14flags_internal21PrivateHandleAccessor33CheckDefaultValueParsingRoundtripERKNS_15CommandLineFlagE(ptr noundef nonnull align 8 dereferenceable(8) %0) local_unnamed_addr #0 align 2 {
  %2 = load ptr, ptr %0, align 8, !tbaa !4
  %3 = getelementptr inbounds nuw i8, ptr %2, i64 96
  %4 = load ptr, ptr %3, align 8
  tail call void %4(ptr noundef nonnull align 8 dereferenceable(8) %0)
  ret void
}

; Function Attrs: mustprogress uwtable
define dso_local noundef zeroext i1 @_ZN4absl14flags_internal21PrivateHandleAccessor9ParseFromERNS_15CommandLineFlagESt17basic_string_viewIcSt11char_traitsIcEENS0_15FlagSettingModeENS0_11ValueSourceERNSt7__cxx1112basic_stringIcS6_SaIcEEE(ptr noundef nonnull align 8 dereferenceable(8) %0, i64 %1, ptr %2, i32 noundef %3, i32 noundef %4, ptr noundef nonnull align 8 dereferenceable(32) %5) local_unnamed_addr #0 align 2 {
  %7 = load ptr, ptr %0, align 8, !tbaa !4
  %8 = getelementptr inbounds nuw i8, ptr %7, i64 48
  %9 = load ptr, ptr %8, align 8
  %10 = tail call noundef zeroext i1 %9(ptr noundef nonnull align 8 dereferenceable(8) %0, i64 %1, ptr %2, i32 noundef %3, i32 noundef %4, ptr noundef nonnull align 8 dereferenceable(32) %5)
  ret i1 %10
}

; Function Attrs: mustprogress uwtable
define dso_local { i64, ptr } @_ZN4absl14flags_internal21PrivateHandleAccessor8TypeNameERKNS_15CommandLineFlagE(ptr noundef nonnull align 8 dereferenceable(8) %0) local_unnamed_addr #0 align 2 {
  %2 = load ptr, ptr %0, align 8, !tbaa !4
  %3 = getelementptr inbounds nuw i8, ptr %2, i64 104
  %4 = load ptr, ptr %3, align 8
  %5 = tail call { i64, ptr } %4(ptr noundef nonnull align 8 dereferenceable(8) %0)
  ret { i64, ptr } %5
}


!llvm.module.flags = !{!0, !1, !2, !3}

!0 = !{i32 1, !"wchar_size", i32 4}
!1 = !{i32 8, !"PIC Level", i32 2}
!2 = !{i32 7, !"PIE Level", i32 2}
!3 = !{i32 7, !"uwtable", i32 2}
!4 = !{!5, !5, i64 0}
!5 = !{!"vtable pointer", !6, i64 0}
!6 = !{!"Simple C++ TBAA"}
